; Function Attrs: mustprogress nounwind uwtable
define hidden void @_ZN2cv12ppf_match_3d12destroyFlannEPv(ptr noundef %0) local_unnamed_addr #7 {
  %2 = icmp eq ptr %0, null
  br i1 %2, label %11, label %3

3:                                                ; preds = %1
  %4 = load ptr, ptr %0, align 8, !tbaa !146
  %5 = icmp eq ptr %4, null
  br i1 %5, label %_ZN2cv5flann12GenericIndexIN7cvflann2L2IfEEED2Ev.exit, label %6

6:                                                ; preds = %3
  %7 = load ptr, ptr %4, align 8, !tbaa !45
  %8 = getelementptr inbounds nuw i8, ptr %7, i64 8
  %9 = load ptr, ptr %8, align 8
  tail call void %9(ptr noundef nonnull align 8 dereferenceable(72) %4) #36
  br label %_ZN2cv5flann12GenericIndexIN7cvflann2L2IfEEED2Ev.exit

_ZN2cv5flann12GenericIndexIN7cvflann2L2IfEEED2Ev.exit: ; preds = %3, %6
  %10 = getelementptr inbounds nuw i8, ptr %0, i64 8
  tail call void @_ZN2cv3MatD1Ev(ptr noundef nonnull align 8 dereferenceable(96) %10) #36
  tail call void @_ZdlPv(ptr noundef nonnull %0) #39
  br label %11

11:                                               ; preds = %_ZN2cv5flann12GenericIndexIN7cvflann2L2IfEEED2Ev.exit, %1
  ret void
}